target datalayout = "e-m:e-p270:32:32-p271:32:32-p272:64:64-i64:64-i128:128-f80:128-n8:16:32:64-S128"
target triple = "x86_64-pc-linux-gnu"

%struct.prov_sha3_meth_st = type { ptr, ptr, ptr }
%struct.keccak_st = type { [5 x [5 x i64]], [168 x i8], i64, i64, i64, i8, %struct.prov_sha3_meth_st, i32 }

@.str = private unnamed_addr constant [57 x i8] c"../openssl/providers/implementations/digests/sha3_prov.c\00", align 1
@sha3_generic_md = internal global %struct.prov_sha3_meth_st { ptr @generic_sha3_absorb, ptr @generic_sha3_final, ptr null }, align 8

; Function Attrs: nounwind uwtable
define internal ptr @keccak_384_newctx(ptr noundef %0) #0 {
  %2 = alloca ptr, align 8
  %3 = alloca ptr, align 8
  %4 = alloca ptr, align 8
  %5 = alloca i32, align 4
  store ptr %0, ptr %3, align 8, !tbaa !3
  call void @llvm.lifetime.start.p0(i64 8, ptr %4) #5
  %6 = call i32 @ossl_prov_is_running()
  %7 = icmp ne i32 %6, 0
  br i1 %7, label %8, label %10

8:                                                ; preds = %1
  %9 = call noalias ptr @CRYPTO_zalloc(i64 noundef 432, ptr noundef @.str, i32 noundef 690)
  br label %11

10:                                               ; preds = %1
  br label %11

11:                                               ; preds = %10, %8
  %12 = phi ptr [ %9, %8 ], [ null, %10 ]
  store ptr %12, ptr %4, align 8, !tbaa !7
  %13 = load ptr, ptr %4, align 8, !tbaa !7
  %14 = icmp eq ptr %13, null
  br i1 %14, label %15, label %16

15:                                               ; preds = %11
  store ptr null, ptr %2, align 8
  store i32 1, ptr %5, align 4
  br label %22

16:                                               ; preds = %11
  %17 = load ptr, ptr %4, align 8, !tbaa !7
  %18 = call i32 @ossl_sha3_init(ptr noundef %17, i8 noundef zeroext 1, i64 noundef 384)
  %19 = load ptr, ptr %4, align 8, !tbaa !7
  %20 = getelementptr inbounds nuw %struct.keccak_st, ptr %19, i32 0, i32 6
  call void @llvm.memcpy.p0.p0.i64(ptr align 8 %20, ptr align 8 @sha3_generic_md, i64 24, i1 false), !tbaa.struct !9
  %21 = load ptr, ptr %4, align 8, !tbaa !7
  store ptr %21, ptr %2, align 8
  store i32 1, ptr %5, align 4
  br label %22

22:                                               ; preds = %16, %15
  call void @llvm.lifetime.end.p0(i64 8, ptr %4) #5
  %23 = load ptr, ptr %2, align 8
  ret ptr %23
}